******************************************************************************
                  TI ARM Linker Unix v20.2.5                   
******************************************************************************
>> Linked Fri Nov 19 19:20:14 2021

OUTPUT FILE NAME:   <Lab-10.out>
ENTRY POINT SYMBOL: "_c_int00_noargs"  address: 00004199


MEMORY CONFIGURATION

         name            origin    length      used     unused   attr    fill
----------------------  --------  ---------  --------  --------  ----  --------
  FLASH                 00000000   00040000  00004c24  0003b3dc  R  X
  SRAM                  20000000   00008000  0000078a  00007876  RW X


SEGMENT ALLOCATION MAP

run origin  load origin   length   init length attrs members
----------  ----------- ---------- ----------- ----- -------
00000000    00000000    00004c28   00004c28    r-x
  00000000    00000000    0000026c   0000026c    r-- .intvecs
  0000026c    0000026c    00003fe4   00003fe4    r-x .text
  00004250    00004250    00000944   00000944    r-- .const
  00004b98    00004b98    00000090   00000090    r-- .cinit
20000000    20000000    00000790   00000000    rw-
  20000000    20000000    000004ba   00000000    rw- .bss
  200004c0    200004c0    00000200   00000000    rw- .stack
  200006c0    200006c0    000000d0   00000000    rw- .data


SECTION ALLOCATION MAP

 output                                  attributes/
section   page    origin      length       input sections
--------  ----  ----------  ----------   ----------------
.intvecs   0    00000000    0000026c     
                  00000000    0000026c     tm4c123gh6pm_startup_ccs.obj (.intvecs)

.text      0    0000026c    00003fe4     
                  0000026c    00001ee0     ST7735Lab4.obj (.text)
                  0000214c    00000788     esp8266Lab4.obj (.text)
                  000028d4    00000602     UARTLab4.obj (.text)
                  00002ed6    00000002     rtsv7M4_T_le_v4SPD16_eabi.lib : div0.asm.obj (.text)
                  00002ed8    00000284     ESPDriver.obj (.text)
                  0000315c    00000270     MotorDriver.obj (.text)
                  000033cc    0000025c     SwitchDriver.obj (.text)
                  00003628    00000168     TachDriver.obj (.text)
                  00003790    00000118     LaunchPad.obj (.text)
                  000038a8    00000112     tm4c123gh6pm_startup_ccs.obj (.text)
                  000039ba    00000002     --HOLE-- [fill = 0]
                  000039bc    000000e4     SysTick.obj (.text)
                  00003aa0    000000c4     DisplayDriver.obj (.text)
                  00003b64    000000bc     Timer1A.obj (.text)
                  00003c20    000000b8     Timer4A.obj (.text)
                  00003cd8    000000a4     Timer2.obj (.text)
                  00003d7c    000000a0     Timer3.obj (.text)
                  00003e1c    0000009c     rtsv7M4_T_le_v4SPD16_eabi.lib : memcpy_t2.asm.obj (.text)
                  00003eb8    00000088     PLL.obj (.text)
                  00003f40    0000007a     rtsv7M4_T_le_v4SPD16_eabi.lib : memset_t2.asm.obj (.text)
                  00003fba    00000068                                   : copy_decompress_lzss.c.obj (.text:decompress:lzss:__TI_decompress_lzss)
                  00004022    0000005e                                   : i_divt2.asm.obj (.text)
                  00004080    0000004c                                   : atoi.c.obj (.text:atoi)
                  000040cc    00000048     main.obj (.text)
                  00004114    00000044     rtsv7M4_T_le_v4SPD16_eabi.lib : autoinit.c.obj (.text:__TI_auto_init_nobinit_nopinit:__TI_auto_init_nobinit_nopinit)
                  00004158    00000040                                   : strtok.c.obj (.text:strtok)
                  00004198    00000034                                   : boot_cortex_m.c.obj (.text:_c_int00_noargs:_c_int00_noargs)
                  000041cc    0000002a                                   : strspn.c.obj (.text:strspn)
                  000041f6    00000024                                   : strcspn.c.obj (.text:strcspn)
                  0000421a    00000014                                   : strcpy.c.obj (.text:strcpy)
                  0000422e    0000000e                                   : copy_decompress_none.c.obj (.text:decompress:none:__TI_decompress_none)
                  0000423c    0000000c                                   : copy_zero_init.c.obj (.text:decompress:ZI:__TI_zero_init)
                  00004248    00000004                                   : pre_init.c.obj (.text:_system_pre_init)
                  0000424c    00000004                                   : exit.c.obj (.text:abort:abort)

.const     0    00004250    00000944     
                  00004250    000004fb     ST7735Lab4.obj (.const:.string:Font)
                  0000474b    00000200     ST7735Lab4.obj (.const:.string:dBfs)
                  0000494b    00000101     rtsv7M4_T_le_v4SPD16_eabi.lib : ctype.c.obj (.const:.string:_ctypes_)
                  00004a4c    00000067     ST7735Lab4.obj (.const:.string:Bcmd)
                  00004ab3    00000001     --HOLE-- [fill = 0]
                  00004ab4    0000003c     ST7735Lab4.obj (.const:circle)
                  00004af0    0000003b     ST7735Lab4.obj (.const:.string:Rcmd1)
                  00004b2b    0000002b     ST7735Lab4.obj (.const:.string:Rcmd3)
                  00004b56    00000024     ST7735Lab4.obj (.const:smallCircle)
                  00004b7a    0000000d     ST7735Lab4.obj (.const:.string:Rcmd2green)
                  00004b87    0000000d     ST7735Lab4.obj (.const:.string:Rcmd2red)

.cinit     0    00004b98    00000090     
                  00004b98    0000006b     (.cinit..data.load) [load image, compression = lzss]
                  00004c03    00000001     --HOLE-- [fill = 0]
                  00004c04    0000000c     (__TI_handler_table)
                  00004c10    00000008     (.cinit..bss.load) [load image, compression = zero_init]
                  00004c18    00000010     (__TI_cinit_table)

.init_array 
*          0    00000000    00000000     UNINITIALIZED

.bss       0    20000000    000004ba     UNINITIALIZED
                  20000000    00000200     (.common:Rx5Fifo)
                  20000200    00000100     esp8266Lab4.obj (.bss:Tx5Fifo)
                  20000300    00000040     UARTLab4.obj (.bss:RxFifo)
                  20000340    00000040     UARTLab4.obj (.bss:TxFifo)
                  20000380    00000040     (.common:RxMessage)
                  200003c0    00000040     (.common:serial_buf)
                  20000400    0000000c     (.common:Message)
                  2000040c    00000004     ST7735Lab4.obj (.bss)
                  20000410    00000004     TachDriver.obj (.bss)
                  20000414    00000004     (.common:Done)
                  20000418    00000004     (.common:E)
                  2000041c    00000004     (.common:I)
                  20000420    00000004     (.common:KI_1)
                  20000424    00000004     (.common:KI_2)
                  20000428    00000004     (.common:KP_1)
                  2000042c    00000004     (.common:KP_2)
                  20000430    00000004     (.common:Messageindex)
                  20000434    00000004     (.common:MotorSpeed)
                  20000438    00000004     (.common:P)
                  2000043c    00000004     (.common:Period)
                  20000440    00000004     (.common:PeriodicTask1)
                  20000444    00000004     (.common:PeriodicTask2)
                  20000448    00000004     (.common:PeriodicTask3)
                  2000044c    00000004     (.common:PeriodicTask4)
                  20000450    00000004     (.common:RPS_Desired)
                  20000454    00000004     (.common:RPS_Measured)
                  20000458    00000004     (.common:Rx5GetI)
                  2000045c    00000004     (.common:Rx5PutI)
                  20000460    00000004     (.common:Rx5PutJ)
                  20000464    00000004     (.common:RxGetI)
                  20000468    00000004     (.common:RxPutI)
                  2000046c    00000004     (.common:SW1)
                  20000470    00000004     (.common:SW2)
                  20000474    00000004     (.common:SW3)
                  20000478    00000004     (.common:Time)
                  2000047c    00000004     (.common:Tx5GetI)
                  20000480    00000004     (.common:Tx5PutI)
                  20000484    00000004     (.common:TxGetI)
                  20000488    00000004     (.common:TxPutI)
                  2000048c    00000004     (.common:U)
                  20000490    00000004     (.common:X)
                  20000494    00000004     (.common:Ymax)
                  20000498    00000004     (.common:Ymin)
                  2000049c    00000004     (.common:Yrange)
                  200004a0    00000004     (.common:pin_int)
                  200004a4    00000004     (.common:pin_num)
                  200004a8    00000004     (.common:x_coordinate)
                  200004ac    00000004     (.common:y_desired)
                  200004b0    00000004     (.common:y_measured)
                  200004b4    00000002     (.common:SW_Delay1)
                  200004b6    00000002     (.common:SW_Delay2)
                  200004b8    00000002     (.common:SW_Delay3)

.data      0    200006c0    000000d0     UNINITIALIZED
                  200006c0    00000040     esp8266Lab4.obj (.data:auth)
                  20000700    00000024     ST7735Lab4.obj (.data)
                  20000724    00000020     esp8266Lab4.obj (.data:pass)
                  20000744    00000020     esp8266Lab4.obj (.data:ssid)
                  20000764    0000000d     ESPDriver.obj (.data)
                  20000771    00000008     ESPDriver.obj (.data:Pin_Float)
                  20000779    00000008     ESPDriver.obj (.data:Pin_Integer)
                  20000781    00000002     ESPDriver.obj (.data:Pin_Number)
                  20000783    00000001     --HOLE--
                  20000784    00000004     MotorDriver.obj (.data)
                  20000788    00000004     SwitchDriver.obj (.data)
                  2000078c    00000004     rtsv7M4_T_le_v4SPD16_eabi.lib : strtok.c.obj (.data)

.stack     0    200004c0    00000200     UNINITIALIZED
                  200004c0    00000004     rtsv7M4_T_le_v4SPD16_eabi.lib : boot_cortex_m.c.obj (.stack)
                  200004c4    000001fc     --HOLE--

__llvm_prf_cnts 
*          0    20000000    00000000     UNINITIALIZED

MODULE SUMMARY

       Module                         code    ro data   rw data
       ------                         ----    -------   -------
    ./
       tm4c123gh6pm_startup_ccs.obj   274     620       0      
       ESPDriver.obj                  644     0         103    
       MotorDriver.obj                624     0         44     
       SwitchDriver.obj               604     0         22     
       TachDriver.obj                 360     0         16     
       SysTick.obj                    228     0         4      
       DisplayDriver.obj              196     0         12     
       main.obj                       72      0         0      
    +--+------------------------------+-------+---------+---------+
       Total:                         3002    620       201    
                                                               
    ./inc/
       ST7735Lab4.obj                 7904    2114      72     
       esp8266Lab4.obj                1928    0         980    
       UARTLab4.obj                   1538    0         144    
       LaunchPad.obj                  280     0         0      
       Timer1A.obj                    188     0         4      
       Timer4A.obj                    184     0         4      
       Timer2.obj                     164     0         4      
       Timer3.obj                     160     0         4      
       PLL.obj                        136     0         0      
    +--+------------------------------+-------+---------+---------+
       Total:                         12482   2114      1212   
                                                               
    /Applications/ti/ccs1040/ccs/tools/compiler/ti-cgt-arm_20.2.5.LTS/lib/rtsv7M4_T_le_v4SPD16_eabi.lib
       ctype.c.obj                    0       257       0      
       memcpy_t2.asm.obj              156     0         0      
       memset_t2.asm.obj              122     0         0      
       copy_decompress_lzss.c.obj     104     0         0      
       i_divt2.asm.obj                94      0         0      
       atoi.c.obj                     76      0         0      
       autoinit.c.obj                 68      0         0      
       strtok.c.obj                   64      0         4      
       boot_cortex_m.c.obj            52      0         0      
       strspn.c.obj                   42      0         0      
       strcspn.c.obj                  36      0         0      
       strcpy.c.obj                   20      0         0      
       copy_decompress_none.c.obj     14      0         0      
       copy_zero_init.c.obj           12      0         0      
       exit.c.obj                     4       0         0      
       pre_init.c.obj                 4       0         0      
       div0.asm.obj                   2       0         0      
    +--+------------------------------+-------+---------+---------+
       Total:                         870     257       4      
                                                               
       Stack:                         0       0         512    
       Linker Generated:              0       143       0      
    +--+------------------------------+-------+---------+---------+
       Grand Total:                   16354   3134      1929   


LINKER GENERATED COPY TABLES

__TI_cinit_table @ 00004c18 records: 2, size/record: 8, table size: 16
	.data: load addr=00004b98, load size=0000006b bytes, run addr=200006c0, run size=000000d0 bytes, compression=lzss
	.bss: load addr=00004c10, load size=00000008 bytes, run addr=20000000, run size=000004ba bytes, compression=zero_init


LINKER GENERATED HANDLER TABLE

__TI_handler_table @ 00004c04 records: 3, size/record: 4, table size: 12
	index: 0, handler: __TI_decompress_lzss
	index: 1, handler: __TI_decompress_none
	index: 2, handler: __TI_zero_init


GLOBAL SYMBOLS: SORTED ALPHABETICALLY BY Name 

address   name                          
-------   ----                          
000038d9  ADC0Seq0_Handler              
000038db  ADC0Seq1_Handler              
000038dd  ADC0Seq2_Handler              
000038df  ADC0Seq3_Handler              
0000391d  ADC1Seq0_Handler              
0000391f  ADC1Seq1_Handler              
00003921  ADC1Seq2_Handler              
00003923  ADC1Seq3_Handler              
00002f0d  Blynk_to_TM4C_READ            
0000424d  C$$EXIT                       
0000390b  CAN0_Handler                  
0000390d  CAN1_Handler                  
0000390f  CAN2_Handler                  
000038ef  Comp0_Handler                 
000038f1  Comp1_Handler                 
000038f3  Comp2_Handler                 
000038b7  DebugMon_Handler              
000002cf  Delay1ms                      
00002515  DelayMs                       
000039a1  DisableInterrupts             
00003aa1  DisplayInit                   
20000414  Done                          
20000418  E                             
0000242b  ESP8266_AvailableInput        
0000222f  ESP8266_GetMessage            
00002545  ESP8266_Init                  
000025ad  ESP8266_Init_Safe             
00002433  ESP8266_OutChar               
000024c1  ESP8266_OutString             
000024e5  ESP8266_OutUDec               
00002645  ESP8266_Reset                 
00002699  ESP8266_SetupWiFi             
00003075  ESP_Init                      
2000076c  E_old                         
0000342b  EdgeCounterPortF_Init         
000039a5  EnableInterrupts              
000039b1  EndCritical                   
00003911  Ethernet_Handler              
00003927  ExtBus_Handler                
00003961  FPU_Handler                   
20000788  FallingEdges                  
00003971  Fan0_Handler                  
000038f7  FlashCtl_Handler              
000038bd  GPIOPortA_Handler             
000038bf  GPIOPortB_Handler             
000038c1  GPIOPortC_Handler             
000038c3  GPIOPortD_Handler             
000038c5  GPIOPortE_Handler             
000034d1  GPIOPortF_Handler             
000038fb  GPIOPortG_Handler             
000038fd  GPIOPortH_Handler             
00003929  GPIOPortJ_Handler             
0000392b  GPIOPortK_Handler             
0000392d  GPIOPortL_Handler             
0000396b  GPIOPortM_Handler             
0000396d  GPIOPortN_Handler             
00003975  GPIOPortP1_Handler            
00003977  GPIOPortP2_Handler            
00003979  GPIOPortP3_Handler            
0000397b  GPIOPortP4_Handler            
0000397d  GPIOPortP5_Handler            
0000397f  GPIOPortP6_Handler            
00003981  GPIOPortP7_Handler            
00003973  GPIOPortP_Handler             
00003985  GPIOPortQ1_Handler            
00003987  GPIOPortQ2_Handler            
00003989  GPIOPortQ3_Handler            
0000398b  GPIOPortQ4_Handler            
0000398d  GPIOPortQ5_Handler            
0000398f  GPIOPortQ6_Handler            
00003991  GPIOPortQ7_Handler            
00003983  GPIOPortQ_Handler             
00003993  GPIOPortR_Handler             
00003995  GPIOPortS_Handler             
00003913  Hibernate_Handler             
2000041c  I                             
000038cd  I2C0_Handler                  
00003907  I2C1_Handler                  
0000393d  I2C2_Handler                  
0000393f  I2C3_Handler                  
00003967  I2C4_Handler                  
00003969  I2C5_Handler                  
00003925  I2S0_Handler                  
0000315d  InitMotor                     
00003735  InitTachDriver                
20000420  KI_1                          
20000424  KI_2                          
20000428  KP_1                          
2000042c  KP_2                          
00003965  LPC0_Handler                  
00003791  LaunchPad_Init                
000037c9  LaunchPad_Input               
00003867  LaunchPad_Output              
00003837  LaunchPad_WaitForRelease      
0000381b  LaunchPad_WaitForTouch        
20000400  Message                       
20000430  Messageindex                  
20000434  MotorSpeed                    
00001a07  Output_Clear                  
00001a21  Output_Color                  
000019f7  Output_Init                   
00001a11  Output_Off                    
00001a19  Output_On                     
20000438  P                             
00003963  PECI0_Handler                 
00003265  PI_Loop                       
00003eb9  PLL_Init                      
000038cf  PWM0Fault_Handler             
000038d1  PWM0Generator0_Handler        
000038d3  PWM0Generator1_Handler        
000038d5  PWM0Generator2_Handler        
00003917  PWM0Generator3_Handler        
0000399f  PWM1Fault_Handler             
00003997  PWM1Generator0_Handler        
00003999  PWM1Generator1_Handler        
0000399b  PWM1Generator2_Handler        
0000399d  PWM1Generator3_Handler        
000038b9  PendSV_Handler                
2000043c  Period                        
00003629  PeriodMeasure_Init            
20000440  PeriodicTask1                 
20000444  PeriodicTask2                 
20000448  PeriodicTask3                 
2000044c  PeriodicTask4                 
20000771  Pin_Float                     
20000779  Pin_Integer                   
20000781  Pin_Number                    
00003ad7  PlotCustomGraph               
000033e3  PortC_Init                    
000038d7  Quadrature0_Handler           
00003909  Quadrature1_Handler           
0000396f  Quadrature2_Handler           
20000450  RPS_Desired                   
20000454  RPS_Measured                  
20000764  RPS_Measured_old              
000038a9  ResetISR                      
20000000  Rx5Fifo                       
0000214d  Rx5Fifo_Init                  
0000216b  Rx5Fifo_Put                   
0000228b  Rx5Fifo_Size                  
20000458  Rx5GetI                       
2000045c  Rx5PutI                       
20000460  Rx5PutJ                       
00002929  RxFifo_Get                    
000028d5  RxFifo_Init                   
000028ef  RxFifo_Put                    
0000295d  RxFifo_Size                   
20000464  RxGetI                        
20000380  RxMessage                     
20000468  RxPutI                        
000038cb  SSI0_Handler                  
00003901  SSI1_Handler                  
0000392f  SSI2_Handler                  
00003931  SSI3_Handler                  
00000af9  ST7735_Color565               
00000b61  ST7735_DrawBitmap             
00000ee7  ST7735_DrawChar               
00000d79  ST7735_DrawCharS              
00000a21  ST7735_DrawCircle             
00000745  ST7735_DrawFastHLine          
0000064f  ST7735_DrawFastVLine          
000005f1  ST7735_DrawPixel              
00000949  ST7735_DrawSmallCircle        
00001069  ST7735_DrawString             
00000831  ST7735_FillRect               
000007f3  ST7735_FillScreen             
000004bb  ST7735_InitB                  
000004db  ST7735_InitR                  
0000149d  ST7735_InvertDisplay          
00001fb1  ST7735_Line                   
00002067  ST7735_Line_PortD             
000018dd  ST7735_OutChar                
00001999  ST7735_OutString              
0000125f  ST7735_OutUDec                
000012d3  ST7735_OutUDec4               
00001347  ST7735_OutUDec5               
000017e9  ST7735_PlotBar                
000014bd  ST7735_PlotClear              
000015d9  ST7735_PlotLine               
00001889  ST7735_PlotNext               
000018a3  ST7735_PlotNextErase          
00001525  ST7735_PlotPoint              
00001713  ST7735_PlotPoints             
0000183f  ST7735_PlotdBfs               
00001239  ST7735_SetCursor              
000013d1  ST7735_SetRotation            
000019b7  ST7735_SetTextColor           
0000211d  ST7735_SetX                   
00000b2d  ST7735_SwapColor              
00001ca9  ST7735_XYplot                 
00001c31  ST7735_XYplotInit             
00001a45  ST7735_sDecOut2               
00001b6d  ST7735_uBinOut6               
000038b5  SVC_Handler                   
2000046c  SW1                           
20000470  SW2                           
20000474  SW3                           
200004b4  SW_Delay1                     
200004b6  SW_Delay2                     
200004b8  SW_Delay3                     
00003017  Send_Information              
0000324f  SetDuty                       
20000708  StTextColor                   
20000700  StX                           
20000704  StY                           
000039a9  StartCritical                 
000033cd  Switches_Handler              
000034ff  Switches_Init                 
0000352f  Switches_Loop                 
000038f5  SysCtl_Handler                
00003a1f  SysTick50_Wait10ms            
00003a45  SysTick80_Wait10ms            
000038bb  SysTick_Handler               
000039bd  SysTick_Init                  
00003a6b  SysTick_Start                 
00003a75  SysTick_Stop                  
000039d9  SysTick_Wait                  
000039f9  SysTick_Wait10ms              
00002ed9  TM4C_to_Blynk                 
20000478  Time                          
000036e5  Timer0A_Handler               
000038e5  Timer0B_Handler               
00003bcf  Timer1A_Handler               
00003b65  Timer1A_Init                  
00003bdf  Timer1A_Stop                  
000038e9  Timer1B_Handler               
00003d3f  Timer2A_Handler               
000038ed  Timer2B_Handler               
00003cd9  Timer2_Init                   
00003de1  Timer3A_Handler               
00003905  Timer3B_Handler               
00003d7d  Timer3_Init                   
00003c89  Timer4A_Handler               
00003c21  Timer4A_Init                  
00003c99  Timer4A_Stop                  
00003943  Timer4B_Handler               
00003945  Timer5A_Handler               
00003947  Timer5B_Handler               
000022eb  Tx5Fifo_Get                   
00002297  Tx5Fifo_Init                  
000022b1  Tx5Fifo_Put                   
0000231f  Tx5Fifo_Size                  
2000047c  Tx5GetI                       
20000480  Tx5PutI                       
000029bd  TxFifo_Get                    
00002969  TxFifo_Init                   
00002983  TxFifo_Put                    
000029f1  TxFifo_Size                   
20000484  TxGetI                        
20000488  TxPutI                        
2000048c  U                             
00002be9  UART0_Handler                 
000038c9  UART1_Handler                 
000038ff  UART2_Handler                 
00003933  UART3_Handler                 
00003935  UART4_Handler                 
0000246d  UART5_Handler                 
0000232b  UART5_Init                    
00003939  UART6_Handler                 
0000393b  UART7_Handler                 
00002b8f  UART_InChar                   
00002ba1  UART_InCharNonBlock           
00002e5d  UART_InString                 
00002c61  UART_InUDec                   
00002d4d  UART_InUHex                   
000029fd  UART_Init                     
00002aa3  UART_Init_Safe                
00002bb5  UART_OutChar                  
00002c33  UART_OutString                
00002ce5  UART_OutUDec                  
00002e19  UART_OutUHex                  
00003915  USB0_Handler                  
20000768  U_old                         
20000784  U_old2                        
000038e1  WDT_Handler                   
000039b7  WaitForInterrupt              
00003949  WideTimer0A_Handler           
0000394b  WideTimer0B_Handler           
0000394d  WideTimer1A_Handler           
0000394f  WideTimer1B_Handler           
00003951  WideTimer2A_Handler           
00003953  WideTimer2B_Handler           
00003955  WideTimer3A_Handler           
00003957  WideTimer3B_Handler           
00003959  WideTimer4A_Handler           
0000395b  WideTimer4B_Handler           
0000395d  WideTimer5A_Handler           
0000395f  WideTimer5B_Handler           
20000490  X                             
20000494  Ymax                          
20000498  Ymin                          
2000049c  Yrange                        
200006c0  __STACK_END                   
00000200  __STACK_SIZE                  
200006c0  __STACK_TOP                   
00004c18  __TI_CINIT_Base               
00004c28  __TI_CINIT_Limit              
00004c04  __TI_Handler_Table_Base       
00004c10  __TI_Handler_Table_Limit      
00004115  __TI_auto_init_nobinit_nopinit
00003fbb  __TI_decompress_lzss          
0000422f  __TI_decompress_none          
ffffffff  __TI_pprof_out_hndl           
ffffffff  __TI_prof_data_size           
ffffffff  __TI_prof_data_start          
00000000  __TI_static_base__            
0000423d  __TI_zero_init                
00004023  __aeabi_idiv                  
00002ed7  __aeabi_idiv0                 
00004023  __aeabi_idivmod               
00002ed7  __aeabi_ldiv0                 
00003f41  __aeabi_memclr                
00003f41  __aeabi_memclr4               
00003f41  __aeabi_memclr8               
00003e1d  __aeabi_memcpy                
00003e1d  __aeabi_memcpy4               
00003e1d  __aeabi_memcpy8               
00003f43  __aeabi_memset                
00003f43  __aeabi_memset4               
00003f43  __aeabi_memset8               
ffffffff  __binit__                     
ffffffff  __c_args__                    
UNDEFED   __mpu_init                    
200004c0  __stack                       
20000000  __start___llvm_prf_cnts       
20000000  __stop___llvm_prf_cnts        
00004199  _c_int00_noargs               
0000494b  _ctypes_                      
UNDEFED   _system_post_cinit            
00004249  _system_pre_init              
0000424d  abort                         
00004081  atoi                          
200006c0  auth                          
ffffffff  binit                         
00004ab4  circle                        
0000474b  dBfs                          
20000770  esp_ready                     
000019e9  ferror                        
000019dd  fgetc                         
000010ed  fillmessage                   
0000112f  fillmessage4                  
000011a1  fillmessage5                  
000019cb  fputc                         
00000000  g_pfnVectors                  
20000710  lastj                         
000040cd  main                          
20000718  maxXG                         
20000720  maxYG                         
00003e1d  memcpy                        
00003f49  memset                        
20000714  minXG                         
2000071c  minYG                         
20000724  pass                          
200004a0  pin_int                       
200004a4  pin_num                       
00001da9  plotLineX                     
00001eb5  plotLineY                     
200003c0  serial_buf                    
00004b56  smallCircle                   
20000744  ssid                          
0000421b  strcpy                        
000041f7  strcspn                       
000041cd  strspn                        
00004159  strtok                        
0000391b  uDMA_Error                    
00003919  uDMA_Handler                  
200004a8  x_coordinate                  
200004ac  y_desired                     
200004b0  y_measured                    


GLOBAL SYMBOLS: SORTED BY Symbol Address 

address   name                          
-------   ----                          
00000000  __TI_static_base__            
00000000  g_pfnVectors                  
00000200  __STACK_SIZE                  
000002cf  Delay1ms                      
000004bb  ST7735_InitB                  
000004db  ST7735_InitR                  
000005f1  ST7735_DrawPixel              
0000064f  ST7735_DrawFastVLine          
00000745  ST7735_DrawFastHLine          
000007f3  ST7735_FillScreen             
00000831  ST7735_FillRect               
00000949  ST7735_DrawSmallCircle        
00000a21  ST7735_DrawCircle             
00000af9  ST7735_Color565               
00000b2d  ST7735_SwapColor              
00000b61  ST7735_DrawBitmap             
00000d79  ST7735_DrawCharS              
00000ee7  ST7735_DrawChar               
00001069  ST7735_DrawString             
000010ed  fillmessage                   
0000112f  fillmessage4                  
000011a1  fillmessage5                  
00001239  ST7735_SetCursor              
0000125f  ST7735_OutUDec                
000012d3  ST7735_OutUDec4               
00001347  ST7735_OutUDec5               
000013d1  ST7735_SetRotation            
0000149d  ST7735_InvertDisplay          
000014bd  ST7735_PlotClear              
00001525  ST7735_PlotPoint              
000015d9  ST7735_PlotLine               
00001713  ST7735_PlotPoints             
000017e9  ST7735_PlotBar                
0000183f  ST7735_PlotdBfs               
00001889  ST7735_PlotNext               
000018a3  ST7735_PlotNextErase          
000018dd  ST7735_OutChar                
00001999  ST7735_OutString              
000019b7  ST7735_SetTextColor           
000019cb  fputc                         
000019dd  fgetc                         
000019e9  ferror                        
000019f7  Output_Init                   
00001a07  Output_Clear                  
00001a11  Output_Off                    
00001a19  Output_On                     
00001a21  Output_Color                  
00001a45  ST7735_sDecOut2               
00001b6d  ST7735_uBinOut6               
00001c31  ST7735_XYplotInit             
00001ca9  ST7735_XYplot                 
00001da9  plotLineX                     
00001eb5  plotLineY                     
00001fb1  ST7735_Line                   
00002067  ST7735_Line_PortD             
0000211d  ST7735_SetX                   
0000214d  Rx5Fifo_Init                  
0000216b  Rx5Fifo_Put                   
0000222f  ESP8266_GetMessage            
0000228b  Rx5Fifo_Size                  
00002297  Tx5Fifo_Init                  
000022b1  Tx5Fifo_Put                   
000022eb  Tx5Fifo_Get                   
0000231f  Tx5Fifo_Size                  
0000232b  UART5_Init                    
0000242b  ESP8266_AvailableInput        
00002433  ESP8266_OutChar               
0000246d  UART5_Handler                 
000024c1  ESP8266_OutString             
000024e5  ESP8266_OutUDec               
00002515  DelayMs                       
00002545  ESP8266_Init                  
000025ad  ESP8266_Init_Safe             
00002645  ESP8266_Reset                 
00002699  ESP8266_SetupWiFi             
000028d5  RxFifo_Init                   
000028ef  RxFifo_Put                    
00002929  RxFifo_Get                    
0000295d  RxFifo_Size                   
00002969  TxFifo_Init                   
00002983  TxFifo_Put                    
000029bd  TxFifo_Get                    
000029f1  TxFifo_Size                   
000029fd  UART_Init                     
00002aa3  UART_Init_Safe                
00002b8f  UART_InChar                   
00002ba1  UART_InCharNonBlock           
00002bb5  UART_OutChar                  
00002be9  UART0_Handler                 
00002c33  UART_OutString                
00002c61  UART_InUDec                   
00002ce5  UART_OutUDec                  
00002d4d  UART_InUHex                   
00002e19  UART_OutUHex                  
00002e5d  UART_InString                 
00002ed7  __aeabi_idiv0                 
00002ed7  __aeabi_ldiv0                 
00002ed9  TM4C_to_Blynk                 
00002f0d  Blynk_to_TM4C_READ            
00003017  Send_Information              
00003075  ESP_Init                      
0000315d  InitMotor                     
0000324f  SetDuty                       
00003265  PI_Loop                       
000033cd  Switches_Handler              
000033e3  PortC_Init                    
0000342b  EdgeCounterPortF_Init         
000034d1  GPIOPortF_Handler             
000034ff  Switches_Init                 
0000352f  Switches_Loop                 
00003629  PeriodMeasure_Init            
000036e5  Timer0A_Handler               
00003735  InitTachDriver                
00003791  LaunchPad_Init                
000037c9  LaunchPad_Input               
0000381b  LaunchPad_WaitForTouch        
00003837  LaunchPad_WaitForRelease      
00003867  LaunchPad_Output              
000038a9  ResetISR                      
000038b5  SVC_Handler                   
000038b7  DebugMon_Handler              
000038b9  PendSV_Handler                
000038bb  SysTick_Handler               
000038bd  GPIOPortA_Handler             
000038bf  GPIOPortB_Handler             
000038c1  GPIOPortC_Handler             
000038c3  GPIOPortD_Handler             
000038c5  GPIOPortE_Handler             
000038c9  UART1_Handler                 
000038cb  SSI0_Handler                  
000038cd  I2C0_Handler                  
000038cf  PWM0Fault_Handler             
000038d1  PWM0Generator0_Handler        
000038d3  PWM0Generator1_Handler        
000038d5  PWM0Generator2_Handler        
000038d7  Quadrature0_Handler           
000038d9  ADC0Seq0_Handler              
000038db  ADC0Seq1_Handler              
000038dd  ADC0Seq2_Handler              
000038df  ADC0Seq3_Handler              
000038e1  WDT_Handler                   
000038e5  Timer0B_Handler               
000038e9  Timer1B_Handler               
000038ed  Timer2B_Handler               
000038ef  Comp0_Handler                 
000038f1  Comp1_Handler                 
000038f3  Comp2_Handler                 
000038f5  SysCtl_Handler                
000038f7  FlashCtl_Handler              
000038fb  GPIOPortG_Handler             
000038fd  GPIOPortH_Handler             
000038ff  UART2_Handler                 
00003901  SSI1_Handler                  
00003905  Timer3B_Handler               
00003907  I2C1_Handler                  
00003909  Quadrature1_Handler           
0000390b  CAN0_Handler                  
0000390d  CAN1_Handler                  
0000390f  CAN2_Handler                  
00003911  Ethernet_Handler              
00003913  Hibernate_Handler             
00003915  USB0_Handler                  
00003917  PWM0Generator3_Handler        
00003919  uDMA_Handler                  
0000391b  uDMA_Error                    
0000391d  ADC1Seq0_Handler              
0000391f  ADC1Seq1_Handler              
00003921  ADC1Seq2_Handler              
00003923  ADC1Seq3_Handler              
00003925  I2S0_Handler                  
00003927  ExtBus_Handler                
00003929  GPIOPortJ_Handler             
0000392b  GPIOPortK_Handler             
0000392d  GPIOPortL_Handler             
0000392f  SSI2_Handler                  
00003931  SSI3_Handler                  
00003933  UART3_Handler                 
00003935  UART4_Handler                 
00003939  UART6_Handler                 
0000393b  UART7_Handler                 
0000393d  I2C2_Handler                  
0000393f  I2C3_Handler                  
00003943  Timer4B_Handler               
00003945  Timer5A_Handler               
00003947  Timer5B_Handler               
00003949  WideTimer0A_Handler           
0000394b  WideTimer0B_Handler           
0000394d  WideTimer1A_Handler           
0000394f  WideTimer1B_Handler           
00003951  WideTimer2A_Handler           
00003953  WideTimer2B_Handler           
00003955  WideTimer3A_Handler           
00003957  WideTimer3B_Handler           
00003959  WideTimer4A_Handler           
0000395b  WideTimer4B_Handler           
0000395d  WideTimer5A_Handler           
0000395f  WideTimer5B_Handler           
00003961  FPU_Handler                   
00003963  PECI0_Handler                 
00003965  LPC0_Handler                  
00003967  I2C4_Handler                  
00003969  I2C5_Handler                  
0000396b  GPIOPortM_Handler             
0000396d  GPIOPortN_Handler             
0000396f  Quadrature2_Handler           
00003971  Fan0_Handler                  
00003973  GPIOPortP_Handler             
00003975  GPIOPortP1_Handler            
00003977  GPIOPortP2_Handler            
00003979  GPIOPortP3_Handler            
0000397b  GPIOPortP4_Handler            
0000397d  GPIOPortP5_Handler            
0000397f  GPIOPortP6_Handler            
00003981  GPIOPortP7_Handler            
00003983  GPIOPortQ_Handler             
00003985  GPIOPortQ1_Handler            
00003987  GPIOPortQ2_Handler            
00003989  GPIOPortQ3_Handler            
0000398b  GPIOPortQ4_Handler            
0000398d  GPIOPortQ5_Handler            
0000398f  GPIOPortQ6_Handler            
00003991  GPIOPortQ7_Handler            
00003993  GPIOPortR_Handler             
00003995  GPIOPortS_Handler             
00003997  PWM1Generator0_Handler        
00003999  PWM1Generator1_Handler        
0000399b  PWM1Generator2_Handler        
0000399d  PWM1Generator3_Handler        
0000399f  PWM1Fault_Handler             
000039a1  DisableInterrupts             
000039a5  EnableInterrupts              
000039a9  StartCritical                 
000039b1  EndCritical                   
000039b7  WaitForInterrupt              
000039bd  SysTick_Init                  
000039d9  SysTick_Wait                  
000039f9  SysTick_Wait10ms              
00003a1f  SysTick50_Wait10ms            
00003a45  SysTick80_Wait10ms            
00003a6b  SysTick_Start                 
00003a75  SysTick_Stop                  
00003aa1  DisplayInit                   
00003ad7  PlotCustomGraph               
00003b65  Timer1A_Init                  
00003bcf  Timer1A_Handler               
00003bdf  Timer1A_Stop                  
00003c21  Timer4A_Init                  
00003c89  Timer4A_Handler               
00003c99  Timer4A_Stop                  
00003cd9  Timer2_Init                   
00003d3f  Timer2A_Handler               
00003d7d  Timer3_Init                   
00003de1  Timer3A_Handler               
00003e1d  __aeabi_memcpy                
00003e1d  __aeabi_memcpy4               
00003e1d  __aeabi_memcpy8               
00003e1d  memcpy                        
00003eb9  PLL_Init                      
00003f41  __aeabi_memclr                
00003f41  __aeabi_memclr4               
00003f41  __aeabi_memclr8               
00003f43  __aeabi_memset                
00003f43  __aeabi_memset4               
00003f43  __aeabi_memset8               
00003f49  memset                        
00003fbb  __TI_decompress_lzss          
00004023  __aeabi_idiv                  
00004023  __aeabi_idivmod               
00004081  atoi                          
000040cd  main                          
00004115  __TI_auto_init_nobinit_nopinit
00004159  strtok                        
00004199  _c_int00_noargs               
000041cd  strspn                        
000041f7  strcspn                       
0000421b  strcpy                        
0000422f  __TI_decompress_none          
0000423d  __TI_zero_init                
00004249  _system_pre_init              
0000424d  C$$EXIT                       
0000424d  abort                         
0000474b  dBfs                          
0000494b  _ctypes_                      
00004ab4  circle                        
00004b56  smallCircle                   
00004c04  __TI_Handler_Table_Base       
00004c10  __TI_Handler_Table_Limit      
00004c18  __TI_CINIT_Base               
00004c28  __TI_CINIT_Limit              
20000000  Rx5Fifo                       
20000000  __start___llvm_prf_cnts       
20000000  __stop___llvm_prf_cnts        
20000380  RxMessage                     
200003c0  serial_buf                    
20000400  Message                       
20000414  Done                          
20000418  E                             
2000041c  I                             
20000420  KI_1                          
20000424  KI_2                          
20000428  KP_1                          
2000042c  KP_2                          
20000430  Messageindex                  
20000434  MotorSpeed                    
20000438  P                             
2000043c  Period                        
20000440  PeriodicTask1                 
20000444  PeriodicTask2                 
20000448  PeriodicTask3                 
2000044c  PeriodicTask4                 
20000450  RPS_Desired                   
20000454  RPS_Measured                  
20000458  Rx5GetI                       
2000045c  Rx5PutI                       
20000460  Rx5PutJ                       
20000464  RxGetI                        
20000468  RxPutI                        
2000046c  SW1                           
20000470  SW2                           
20000474  SW3                           
20000478  Time                          
2000047c  Tx5GetI                       
20000480  Tx5PutI                       
20000484  TxGetI                        
20000488  TxPutI                        
2000048c  U                             
20000490  X                             
20000494  Ymax                          
20000498  Ymin                          
2000049c  Yrange                        
200004a0  pin_int                       
200004a4  pin_num                       
200004a8  x_coordinate                  
200004ac  y_desired                     
200004b0  y_measured                    
200004b4  SW_Delay1                     
200004b6  SW_Delay2                     
200004b8  SW_Delay3                     
200004c0  __stack                       
200006c0  __STACK_END                   
200006c0  __STACK_TOP                   
200006c0  auth                          
20000700  StX                           
20000704  StY                           
20000708  StTextColor                   
20000710  lastj                         
20000714  minXG                         
20000718  maxXG                         
2000071c  minYG                         
20000720  maxYG                         
20000724  pass                          
20000744  ssid                          
20000764  RPS_Measured_old              
20000768  U_old                         
2000076c  E_old                         
20000770  esp_ready                     
20000771  Pin_Float                     
20000779  Pin_Integer                   
20000781  Pin_Number                    
20000784  U_old2                        
20000788  FallingEdges                  
ffffffff  __TI_pprof_out_hndl           
ffffffff  __TI_prof_data_size           
ffffffff  __TI_prof_data_start          
ffffffff  __binit__                     
ffffffff  __c_args__                    
ffffffff  binit                         
UNDEFED   __mpu_init                    
UNDEFED   _system_post_cinit            

[369 symbols]
